target datalayout = "e-m:e-p270:32:32-p271:32:32-p272:64:64-i64:64-i128:128-f80:128-n8:16:32:64-S128"
target triple = "x86_64-pc-linux-gnu"

%"class.pxrInternal_v0_24__pxrReserved__::HdDataSourceLocator" = type { %"class.pxrInternal_v0_24__pxrReserved__::TfSmallVector" }
%"class.pxrInternal_v0_24__pxrReserved__::TfSmallVector" = type { %"union.pxrInternal_v0_24__pxrReserved__::TfSmallVectorBase::_DataUnion", i32, i32 }
%"union.pxrInternal_v0_24__pxrReserved__::TfSmallVectorBase::_DataUnion" = type { ptr, [40 x i8] }
%"class.pxrInternal_v0_24__pxrReserved__::HdDataSourceLocatorSet" = type { %"class.pxrInternal_v0_24__pxrReserved__::TfSmallVector.0" }
%"class.pxrInternal_v0_24__pxrReserved__::TfSmallVector.0" = type { %"union.pxrInternal_v0_24__pxrReserved__::TfSmallVectorBase::_DataUnion.1", i32, i32 }
%"union.pxrInternal_v0_24__pxrReserved__::TfSmallVectorBase::_DataUnion.1" = type { ptr, [440 x i8] }
%"class.std::initializer_list.2" = type { ptr, i64 }

@__dso_handle = external hidden global i8
@_ZZN32pxrInternal_v0_24__pxrReserved__22HdDataSourceLocatorSet12UniversalSetEvE6result = internal global ptr null, align 8
@_ZGVZN32pxrInternal_v0_24__pxrReserved__22HdDataSourceLocatorSet12UniversalSetEvE6result = internal global i64 0, align 8
@_ZGRZN32pxrInternal_v0_24__pxrReserved__22HdDataSourceLocatorSet12UniversalSetEvE6result_ = internal global %"class.pxrInternal_v0_24__pxrReserved__::HdDataSourceLocatorSet" zeroinitializer, align 8
@_ZN32pxrInternal_v0_24__pxrReserved__22HdDataSourceLocatorSetC1ERKSt16initializer_listIKNS_19HdDataSourceLocatorEE = unnamed_addr alias void (ptr, ptr), ptr @_ZN32pxrInternal_v0_24__pxrReserved__22HdDataSourceLocatorSetC2ERKSt16initializer_listIKNS_19HdDataSourceLocatorEE

; Function Attrs: mustprogress uwtable
define noundef nonnull align 8 dereferenceable(456) ptr @_ZN32pxrInternal_v0_24__pxrReserved__22HdDataSourceLocatorSet12UniversalSetEv() #0 align 2 personality ptr @__gxx_personality_v0 {
  %1 = alloca %"class.std::initializer_list.2", align 8
  %2 = alloca [1 x %"class.pxrInternal_v0_24__pxrReserved__::HdDataSourceLocator"], align 8
  %3 = alloca ptr, align 8
  %4 = alloca ptr, align 8
  %5 = alloca i32, align 4
  %6 = load atomic i8, ptr @_ZGVZN32pxrInternal_v0_24__pxrReserved__22HdDataSourceLocatorSet12UniversalSetEvE6result acquire, align 8
  %7 = icmp eq i8 %6, 0
  br i1 %7, label %8, label %26, !prof !4

8:                                                ; preds = %0
  %9 = call i32 @__cxa_guard_acquire(ptr @_ZGVZN32pxrInternal_v0_24__pxrReserved__22HdDataSourceLocatorSet12UniversalSetEvE6result) #1
  %10 = icmp ne i32 %9, 0
  br i1 %10, label %11, label %26

11:                                               ; preds = %8
  store ptr %2, ptr %3, align 8
  %12 = invoke noundef nonnull align 8 dereferenceable(56) ptr @_ZN32pxrInternal_v0_24__pxrReserved__19HdDataSourceLocator12EmptyLocatorEv()
          to label %13 unwind label %28

13:                                               ; preds = %11
  invoke void @_ZN32pxrInternal_v0_24__pxrReserved__19HdDataSourceLocatorC2ERKS0_(ptr noundef nonnull align 8 dereferenceable(56) %2, ptr noundef nonnull align 8 dereferenceable(56) %12)
          to label %14 unwind label %28

14:                                               ; preds = %13
  %15 = getelementptr inbounds nuw %"class.std::initializer_list.2", ptr %1, i32 0, i32 0
  store ptr %2, ptr %15, align 8
  %16 = getelementptr inbounds nuw %"class.std::initializer_list.2", ptr %1, i32 0, i32 1
  store i64 1, ptr %16, align 8
  invoke void @_ZN32pxrInternal_v0_24__pxrReserved__22HdDataSourceLocatorSetC1ERKSt16initializer_listIKNS_19HdDataSourceLocatorEE(ptr noundef nonnull align 8 dereferenceable(456) @_ZGRZN32pxrInternal_v0_24__pxrReserved__22HdDataSourceLocatorSet12UniversalSetEvE6result_, ptr noundef nonnull align 8 dereferenceable(16) %1)
          to label %17 unwind label %39

17:                                               ; preds = %14
  %18 = call i32 @__cxa_atexit(ptr @_ZN32pxrInternal_v0_24__pxrReserved__22HdDataSourceLocatorSetD2Ev, ptr @_ZGRZN32pxrInternal_v0_24__pxrReserved__22HdDataSourceLocatorSet12UniversalSetEvE6result_, ptr @__dso_handle) #1
  %19 = getelementptr inbounds [1 x %"class.pxrInternal_v0_24__pxrReserved__::HdDataSourceLocator"], ptr %2, i32 0, i32 0
  %20 = getelementptr inbounds %"class.pxrInternal_v0_24__pxrReserved__::HdDataSourceLocator", ptr %19, i64 1
  br label %21

21:                                               ; preds = %21, %17
  %22 = phi ptr [ %20, %17 ], [ %23, %21 ]
  %23 = getelementptr inbounds %"class.pxrInternal_v0_24__pxrReserved__::HdDataSourceLocator", ptr %22, i64 -1
  call void @_ZN32pxrInternal_v0_24__pxrReserved__19HdDataSourceLocatorD2Ev(ptr noundef nonnull align 8 dereferenceable(56) %23) #1
  %24 = icmp eq ptr %23, %19
  br i1 %24, label %25, label %21

25:                                               ; preds = %21
  store ptr @_ZGRZN32pxrInternal_v0_24__pxrReserved__22HdDataSourceLocatorSet12UniversalSetEvE6result_, ptr @_ZZN32pxrInternal_v0_24__pxrReserved__22HdDataSourceLocatorSet12UniversalSetEvE6result, align 8
  call void @__cxa_guard_release(ptr @_ZGVZN32pxrInternal_v0_24__pxrReserved__22HdDataSourceLocatorSet12UniversalSetEvE6result) #1
  br label %26

26:                                               ; preds = %25, %8, %0
  %27 = load ptr, ptr @_ZZN32pxrInternal_v0_24__pxrReserved__22HdDataSourceLocatorSet12UniversalSetEvE6result, align 8
  ret ptr %27

28:                                               ; preds = %13, %11
  %29 = landingpad { ptr, i32 }
          cleanup
  %30 = extractvalue { ptr, i32 } %29, 0
  store ptr %30, ptr %4, align 8
  %31 = extractvalue { ptr, i32 } %29, 1
  store i32 %31, ptr %5, align 4
  %32 = load ptr, ptr %3, align 8
  %33 = icmp eq ptr %2, %32
  br i1 %33, label %38, label %34

34:                                               ; preds = %34, %28
  %35 = phi ptr [ %32, %28 ], [ %36, %34 ]
  %36 = getelementptr inbounds %"class.pxrInternal_v0_24__pxrReserved__::HdDataSourceLocator", ptr %35, i64 -1
  call void @_ZN32pxrInternal_v0_24__pxrReserved__19HdDataSourceLocatorD2Ev(ptr noundef nonnull align 8 dereferenceable(56) %36) #1
  %37 = icmp eq ptr %36, %2
  br i1 %37, label %38, label %34

38:                                               ; preds = %34, %28
  br label %50

39:                                               ; preds = %14
  %40 = landingpad { ptr, i32 }
          cleanup
  %41 = extractvalue { ptr, i32 } %40, 0
  store ptr %41, ptr %4, align 8
  %42 = extractvalue { ptr, i32 } %40, 1
  store i32 %42, ptr %5, align 4
  %43 = getelementptr inbounds [1 x %"class.pxrInternal_v0_24__pxrReserved__::HdDataSourceLocator"], ptr %2, i32 0, i32 0
  %44 = getelementptr inbounds %"class.pxrInternal_v0_24__pxrReserved__::HdDataSourceLocator", ptr %43, i64 1
  br label %45

45:                                               ; preds = %45, %39
  %46 = phi ptr [ %44, %39 ], [ %47, %45 ]
  %47 = getelementptr inbounds %"class.pxrInternal_v0_24__pxrReserved__::HdDataSourceLocator", ptr %46, i64 -1
  call void @_ZN32pxrInternal_v0_24__pxrReserved__19HdDataSourceLocatorD2Ev(ptr noundef nonnull align 8 dereferenceable(56) %47) #1
  %48 = icmp eq ptr %47, %43
  br i1 %48, label %49, label %45

49:                                               ; preds = %45
  br label %50

50:                                               ; preds = %49, %38
  call void @__cxa_guard_abort(ptr @_ZGVZN32pxrInternal_v0_24__pxrReserved__22HdDataSourceLocatorSet12UniversalSetEvE6result) #1
  br label %51

51:                                               ; preds = %50
  %52 = load ptr, ptr %4, align 8
  %53 = load i32, ptr %5, align 4
  %54 = insertvalue { ptr, i32 } poison, ptr %52, 0
  %55 = insertvalue { ptr, i32 } %54, i32 %53, 1
  resume { ptr, i32 } %55
}