; Function Attrs: mustprogress uwtable
define noundef nonnull align 8 dereferenceable(456) ptr @_ZN32pxrInternal_v0_24__pxrReserved__22HdDataSourceLocatorSet12UniversalSetEv() local_unnamed_addr #0 align 2 personality ptr @__gxx_personality_v0 {
  %1 = alloca %"class.std::initializer_list.2", align 8
  %2 = alloca [1 x %"class.pxrInternal_v0_24__pxrReserved__::HdDataSourceLocator"], align 8
  %3 = load atomic i8, ptr @_ZGVZN32pxrInternal_v0_24__pxrReserved__22HdDataSourceLocatorSet12UniversalSetEvE6result acquire, align 8
  %4 = icmp eq i8 %3, 0
  br i1 %4, label %5, label %14, !prof !4

5:                                                ; preds = %0
  %6 = tail call i32 @__cxa_guard_acquire(ptr nonnull @_ZGVZN32pxrInternal_v0_24__pxrReserved__22HdDataSourceLocatorSet12UniversalSetEvE6result) #19
  %.not = icmp eq i32 %6, 0
  br i1 %.not, label %14, label %7

7:                                                ; preds = %5
  %8 = invoke noundef nonnull align 8 dereferenceable(56) ptr @_ZN32pxrInternal_v0_24__pxrReserved__19HdDataSourceLocator12EmptyLocatorEv()
          to label %9 unwind label %16

9:                                                ; preds = %7
  invoke void @_ZN32pxrInternal_v0_24__pxrReserved__19HdDataSourceLocatorC2ERKS0_(ptr noundef nonnull align 8 dereferenceable(56) %2, ptr noundef nonnull align 8 dereferenceable(56) @_ZZN32pxrInternal_v0_24__pxrReserved__19HdDataSourceLocator12EmptyLocatorEvE15theEmptyLocator)
          to label %10 unwind label %16

10:                                               ; preds = %9
  store ptr %2, ptr %1, align 8
  %11 = getelementptr inbounds nuw i8, ptr %1, i64 8
  store i64 1, ptr %11, align 8
  invoke void @_ZN32pxrInternal_v0_24__pxrReserved__22HdDataSourceLocatorSetC1ERKSt16initializer_listIKNS_19HdDataSourceLocatorEE(ptr noundef nonnull align 8 dereferenceable(456) @_ZGRZN32pxrInternal_v0_24__pxrReserved__22HdDataSourceLocatorSet12UniversalSetEvE6result_, ptr noundef nonnull align 8 dereferenceable(16) %1)
          to label %12 unwind label %.loopexit.loopexit

12:                                               ; preds = %10
  %13 = call i32 @__cxa_atexit(ptr nonnull @_ZN32pxrInternal_v0_24__pxrReserved__22HdDataSourceLocatorSetD2Ev, ptr nonnull @_ZGRZN32pxrInternal_v0_24__pxrReserved__22HdDataSourceLocatorSet12UniversalSetEvE6result_, ptr nonnull @__dso_handle) #19
  call void @_ZN32pxrInternal_v0_24__pxrReserved__19HdDataSourceLocatorD2Ev(ptr noundef nonnull align 8 dereferenceable(56) %2) #19
  store ptr @_ZGRZN32pxrInternal_v0_24__pxrReserved__22HdDataSourceLocatorSet12UniversalSetEvE6result_, ptr @_ZZN32pxrInternal_v0_24__pxrReserved__22HdDataSourceLocatorSet12UniversalSetEvE6result, align 8
  call void @__cxa_guard_release(ptr nonnull @_ZGVZN32pxrInternal_v0_24__pxrReserved__22HdDataSourceLocatorSet12UniversalSetEvE6result) #19
  br label %14

14:                                               ; preds = %12, %5, %0
  %15 = load ptr, ptr @_ZZN32pxrInternal_v0_24__pxrReserved__22HdDataSourceLocatorSet12UniversalSetEvE6result, align 8
  ret ptr %15

16:                                               ; preds = %9, %7
  %17 = landingpad { ptr, i32 }
          cleanup
  br label %.loopexit

.loopexit.loopexit:                               ; preds = %10
  %18 = landingpad { ptr, i32 }
          cleanup
  call void @_ZN32pxrInternal_v0_24__pxrReserved__19HdDataSourceLocatorD2Ev(ptr noundef nonnull align 8 dereferenceable(56) %2) #19
  br label %.loopexit

.loopexit:                                        ; preds = %.loopexit.loopexit, %16
  %.pn = phi { ptr, i32 } [ %17, %16 ], [ %18, %.loopexit.loopexit ]
  call void @__cxa_guard_abort(ptr nonnull @_ZGVZN32pxrInternal_v0_24__pxrReserved__22HdDataSourceLocatorSet12UniversalSetEvE6result) #19
  resume { ptr, i32 } %.pn
}